#include <math.h>
#include <stdio.h>
#include <stdlib.h>
#include <string.h>

int main()
{
	int n,i,j;
	scanf("%d",&n);
	int *shuzu=(int*)malloc(sizeof(int)*n);
	for(i=0;i<n;i++)
	{
	  scanf("%d",&shuzu[i]);
	}
	printf("%d",shuzu[0]);
	for(i=1;i<n;i++)
	{
	  for(j=0;j<i;j++)
	  {
		  if(j<i-1)
		  {
		    if(shuzu[i]==shuzu[j])
		    {
		      break;
		    }
		  }
		  if(j==i-1)
		  {
		    if(shuzu[i]!=shuzu[j])
			{
			  printf(" %d",shuzu[i]);
			}
		  }
	  }
	}
	return 0;
}