; ModuleID = '13/1457.c'
source_filename = "13/1457.c"
target datalayout = "e-m:e-p270:32:32-p271:32:32-p272:64:64-i64:64-f80:128-n8:16:32:64-S128"
target triple = "x86_64-pc-linux-gnu"

@.str = private unnamed_addr constant [3 x i8] c"%d\00", align 1
@.str.1 = private unnamed_addr constant [4 x i8] c" %d\00", align 1

; Function Attrs: noinline nounwind uwtable
define dso_local i32 @main() #0 {
  %1 = alloca i32, align 4
  %2 = alloca i32, align 4
  %3 = alloca i32, align 4
  %4 = alloca i32, align 4
  %5 = alloca i32*, align 8
  store i32 0, i32* %1, align 4
  %6 = call i32 (i8*, ...) @__isoc99_scanf(i8* getelementptr inbounds ([3 x i8], [3 x i8]* @.str, i64 0, i64 0), i32* %2)
  %7 = load i32, i32* %2, align 4
  %8 = sext i32 %7 to i64
  %9 = mul i64 4, %8
  %10 = call noalias i8* @malloc(i64 %9) #3
  %11 = bitcast i8* %10 to i32*
  store i32* %11, i32** %5, align 8
  store i32 0, i32* %3, align 4
  br label %12

12:                                               ; preds = %22, %0
  %13 = load i32, i32* %3, align 4
  %14 = load i32, i32* %2, align 4
  %15 = icmp slt i32 %13, %14
  br i1 %15, label %16, label %25

16:                                               ; preds = %12
  %17 = load i32*, i32** %5, align 8
  %18 = load i32, i32* %3, align 4
  %19 = sext i32 %18 to i64
  %20 = getelementptr inbounds i32, i32* %17, i64 %19
  %21 = call i32 (i8*, ...) @__isoc99_scanf(i8* getelementptr inbounds ([3 x i8], [3 x i8]* @.str, i64 0, i64 0), i32* %20)
  br label %22

22:                                               ; preds = %16
  %23 = load i32, i32* %3, align 4
  %24 = add nsw i32 %23, 1
  store i32 %24, i32* %3, align 4
  br label %12

25:                                               ; preds = %12
  %26 = load i32*, i32** %5, align 8
  %27 = getelementptr inbounds i32, i32* %26, i64 0
  %28 = load i32, i32* %27, align 4
  %29 = call i32 (i8*, ...) @printf(i8* getelementptr inbounds ([3 x i8], [3 x i8]* @.str, i64 0, i64 0), i32 %28)
  store i32 1, i32* %3, align 4
  br label %30

30:                                               ; preds = %88, %25
  %31 = load i32, i32* %3, align 4
  %32 = load i32, i32* %2, align 4
  %33 = icmp slt i32 %31, %32
  br i1 %33, label %34, label %91

34:                                               ; preds = %30
  store i32 0, i32* %4, align 4
  br label %35

35:                                               ; preds = %84, %34
  %36 = load i32, i32* %4, align 4
  %37 = load i32, i32* %3, align 4
  %38 = icmp slt i32 %36, %37
  br i1 %38, label %39, label %87

39:                                               ; preds = %35
  %40 = load i32, i32* %4, align 4
  %41 = load i32, i32* %3, align 4
  %42 = sub nsw i32 %41, 1
  %43 = icmp slt i32 %40, %42
  br i1 %43, label %44, label %58

44:                                               ; preds = %39
  %45 = load i32*, i32** %5, align 8
  %46 = load i32, i32* %3, align 4
  %47 = sext i32 %46 to i64
  %48 = getelementptr inbounds i32, i32* %45, i64 %47
  %49 = load i32, i32* %48, align 4
  %50 = load i32*, i32** %5, align 8
  %51 = load i32, i32* %4, align 4
  %52 = sext i32 %51 to i64
  %53 = getelementptr inbounds i32, i32* %50, i64 %52
  %54 = load i32, i32* %53, align 4
  %55 = icmp eq i32 %49, %54
  br i1 %55, label %56, label %57

56:                                               ; preds = %44
  br label %87

57:                                               ; preds = %44
  br label %58

58:                                               ; preds = %57, %39
  %59 = load i32, i32* %4, align 4
  %60 = load i32, i32* %3, align 4
  %61 = sub nsw i32 %60, 1
  %62 = icmp eq i32 %59, %61
  br i1 %62, label %63, label %83

63:                                               ; preds = %58
  %64 = load i32*, i32** %5, align 8
  %65 = load i32, i32* %3, align 4
  %66 = sext i32 %65 to i64
  %67 = getelementptr inbounds i32, i32* %64, i64 %66
  %68 = load i32, i32* %67, align 4
  %69 = load i32*, i32** %5, align 8
  %70 = load i32, i32* %4, align 4
  %71 = sext i32 %70 to i64
  %72 = getelementptr inbounds i32, i32* %69, i64 %71
  %73 = load i32, i32* %72, align 4
  %74 = icmp ne i32 %68, %73
  br i1 %74, label %75, label %82

75:                                               ; preds = %63
  %76 = load i32*, i32** %5, align 8
  %77 = load i32, i32* %3, align 4
  %78 = sext i32 %77 to i64
  %79 = getelementptr inbounds i32, i32* %76, i64 %78
  %80 = load i32, i32* %79, align 4
  %81 = call i32 (i8*, ...) @printf(i8* getelementptr inbounds ([4 x i8], [4 x i8]* @.str.1, i64 0, i64 0), i32 %80)
  br label %82

82:                                               ; preds = %75, %63
  br label %83

83:                                               ; preds = %82, %58
  br label %84

84:                                               ; preds = %83
  %85 = load i32, i32* %4, align 4
  %86 = add nsw i32 %85, 1
  store i32 %86, i32* %4, align 4
  br label %35

87:                                               ; preds = %56, %35
  br label %88

88:                                               ; preds = %87
  %89 = load i32, i32* %3, align 4
  %90 = add nsw i32 %89, 1
  store i32 %90, i32* %3, align 4
  br label %30

91:                                               ; preds = %30
  ret i32 0
}

declare dso_local i32 @__isoc99_scanf(i8*, ...) #1

; Function Attrs: nounwind
declare dso_local noalias i8* @malloc(i64) #2

declare dso_local i32 @printf(i8*, ...) #1


!llvm.module.flags = !{!0}
!llvm.ident = !{!1}

!0 = !{i32 1, !"wchar_size", i32 4}
!1 = !{!"clang version 10.0.0-4ubuntu1 "}
